target datalayout = "e-m:e-p270:32:32-p271:32:32-p272:64:64-i64:64-i128:128-f80:128-n8:16:32:64-S128"
target triple = "x86_64-unknown-linux-gnu"

%"class.std::__cxx11::basic_string" = type { %"struct.std::__cxx11::basic_string<char>::_Alloc_hider", i64, %union.anon }
%"struct.std::__cxx11::basic_string<char>::_Alloc_hider" = type { ptr }
%union.anon = type { i64, [8 x i8] }
%"class.rocksdb::SkipList<const char *, const rocksdb::MemTableRep::KeyComparator &>::Iterator" = type { ptr, ptr }
%"class.rocksdb::SkipList" = type <{ i16, i16, i32, ptr, ptr, ptr, %"struct.std::atomic.29", [4 x i8], ptr, i32, [4 x i8] }>
%"struct.std::atomic.29" = type { %"struct.std::__atomic_base.30" }
%"struct.std::__atomic_base.30" = type { i32 }
%"struct.rocksdb::SkipList<const char *, const rocksdb::MemTableRep::KeyComparator &>::Node" = type { ptr, [1 x %"struct.std::atomic.31"] }
%"struct.std::atomic.31" = type { %"struct.std::__atomic_base.32" }
%"struct.std::__atomic_base.32" = type { ptr }
%"class.rocksdb::(anonymous namespace)::HashSkipListRep::Iterator" = type { %"class.rocksdb::MemTableRep::Iterator", ptr, %"class.rocksdb::SkipList<const char *, const rocksdb::MemTableRep::KeyComparator &>::Iterator", i8, %"class.std::unique_ptr.42", %"class.std::__cxx11::basic_string" }
%"class.rocksdb::MemTableRep::Iterator" = type { ptr }
%"class.std::unique_ptr.42" = type { %"struct.std::__uniq_ptr_data.43" }
%"struct.std::__uniq_ptr_data.43" = type { %"class.std::__uniq_ptr_impl.44" }
%"class.std::__uniq_ptr_impl.44" = type { %"class.std::tuple.45" }
%"class.std::tuple.45" = type { %"struct.std::_Tuple_impl.46" }
%"struct.std::_Tuple_impl.46" = type { %"struct.std::_Head_base.49" }
%"struct.std::_Head_base.49" = type { ptr }

; Function Attrs: mustprogress nounwind uwtable
define linkonce_odr noundef ptr @_ZNKSt6atomicIPN7rocksdb8SkipListIPKcRKNS0_11MemTableRep13KeyComparatorEE4NodeEE4loadESt12memory_order(ptr noundef nonnull align 8 dereferenceable(8) %this, i32 noundef %__m) #1 comdat align 2 {
entry:
  %this.addr.i = alloca ptr, align 8
  %__m.addr.i = alloca i32, align 4
  %__b.i = alloca i32, align 4
  %atomic-temp.i = alloca ptr, align 8
  %this.addr = alloca ptr, align 8
  %__m.addr = alloca i32, align 4
  store ptr %this, ptr %this.addr, align 8
  store i32 %__m, ptr %__m.addr, align 4
  %this1 = load ptr, ptr %this.addr, align 8
  %_M_b = getelementptr inbounds %"struct.std::atomic.31", ptr %this1, i32 0, i32 0
  %0 = load i32, ptr %__m.addr, align 4
  store ptr %_M_b, ptr %this.addr.i, align 8
  store i32 %0, ptr %__m.addr.i, align 4
  %this1.i = load ptr, ptr %this.addr.i, align 8
  %1 = load i32, ptr %__m.addr.i, align 4
  %call.i = call noundef i32 @_ZStanSt12memory_orderSt23__memory_order_modifier(i32 noundef %1, i32 noundef 65535)
  store i32 %call.i, ptr %__b.i, align 4
  %2 = load i32, ptr %__m.addr.i, align 4
  switch i32 %2, label %monotonic.i [
    i32 1, label %acquire.i
    i32 2, label %acquire.i
    i32 5, label %seqcst.i
  ]

monotonic.i:                                      ; preds = %entry
  %3 = load atomic i64, ptr %this1.i monotonic, align 8
  store i64 %3, ptr %atomic-temp.i, align 8
  br label %_ZNKSt13__atomic_baseIPN7rocksdb8SkipListIPKcRKNS0_11MemTableRep13KeyComparatorEE4NodeEE4loadESt12memory_order.exit

acquire.i:                                        ; preds = %entry, %entry
  %4 = load atomic i64, ptr %this1.i acquire, align 8
  store i64 %4, ptr %atomic-temp.i, align 8
  br label %_ZNKSt13__atomic_baseIPN7rocksdb8SkipListIPKcRKNS0_11MemTableRep13KeyComparatorEE4NodeEE4loadESt12memory_order.exit

seqcst.i:                                         ; preds = %entry
  %5 = load atomic i64, ptr %this1.i seq_cst, align 8
  store i64 %5, ptr %atomic-temp.i, align 8
  br label %_ZNKSt13__atomic_baseIPN7rocksdb8SkipListIPKcRKNS0_11MemTableRep13KeyComparatorEE4NodeEE4loadESt12memory_order.exit

_ZNKSt13__atomic_baseIPN7rocksdb8SkipListIPKcRKNS0_11MemTableRep13KeyComparatorEE4NodeEE4loadESt12memory_order.exit: ; preds = %seqcst.i, %acquire.i, %monotonic.i
  %6 = load ptr, ptr %atomic-temp.i, align 8
  ret ptr %6
}

; Function Attrs: mustprogress nounwind uwtable
define linkonce_odr noundef i32 @_ZStanSt12memory_orderSt23__memory_order_modifier(i32 noundef %__m, i32 noundef %__mod) #1 comdat {
entry:
  %__m.addr = alloca i32, align 4
  %__mod.addr = alloca i32, align 4
  store i32 %__m, ptr %__m.addr, align 4
  store i32 %__mod, ptr %__mod.addr, align 4
  %0 = load i32, ptr %__m.addr, align 4
  %1 = load i32, ptr %__mod.addr, align 4
  %and = and i32 %0, %1
  ret i32 %and
}

; Function Attrs: mustprogress nounwind uwtable
define linkonce_odr noundef ptr @_ZN7rocksdb8SkipListIPKcRKNS_11MemTableRep13KeyComparatorEE4Node4NextEi(ptr noundef nonnull align 8 dereferenceable(16) %this, i32 noundef %n) #1 comdat align 2 {
entry:
  %this.addr = alloca ptr, align 8
  %n.addr = alloca i32, align 4
  store ptr %this, ptr %this.addr, align 8
  store i32 %n, ptr %n.addr, align 4
  %this1 = load ptr, ptr %this.addr, align 8
  %next_ = getelementptr inbounds %"struct.rocksdb::SkipList<const char *, const rocksdb::MemTableRep::KeyComparator &>::Node", ptr %this1, i32 0, i32 1
  %0 = load i32, ptr %n.addr, align 4
  %idxprom = sext i32 %0 to i64
  %arrayidx = getelementptr inbounds [1 x %"struct.std::atomic.31"], ptr %next_, i64 0, i64 %idxprom
  %call = call noundef ptr @_ZNKSt6atomicIPN7rocksdb8SkipListIPKcRKNS0_11MemTableRep13KeyComparatorEE4NodeEE4loadESt12memory_order(ptr noundef nonnull align 8 dereferenceable(8) %arrayidx, i32 noundef 2) #3
  ret ptr %call
}

; Function Attrs: mustprogress nounwind uwtable
define linkonce_odr noundef i32 @_ZNK7rocksdb8SkipListIPKcRKNS_11MemTableRep13KeyComparatorEE12GetMaxHeightEv(ptr noundef nonnull align 8 dereferenceable(52) %this) #1 comdat align 2 {
entry:
  %this.addr.i = alloca ptr, align 8
  %__m.addr.i = alloca i32, align 4
  %__b.i = alloca i32, align 4
  %atomic-temp.i = alloca i32, align 4
  %this.addr = alloca ptr, align 8
  store ptr %this, ptr %this.addr, align 8
  %this1 = load ptr, ptr %this.addr, align 8
  %max_height_ = getelementptr inbounds %"class.rocksdb::SkipList", ptr %this1, i32 0, i32 6
  store ptr %max_height_, ptr %this.addr.i, align 8
  store i32 0, ptr %__m.addr.i, align 4
  %this1.i = load ptr, ptr %this.addr.i, align 8
  %0 = load i32, ptr %__m.addr.i, align 4
  %call.i = call noundef i32 @_ZStanSt12memory_orderSt23__memory_order_modifier(i32 noundef %0, i32 noundef 65535)
  store i32 %call.i, ptr %__b.i, align 4
  %1 = load i32, ptr %__m.addr.i, align 4
  switch i32 %1, label %monotonic.i [
    i32 1, label %acquire.i
    i32 2, label %acquire.i
    i32 5, label %seqcst.i
  ]

monotonic.i:                                      ; preds = %entry
  %2 = load atomic i32, ptr %this1.i monotonic, align 4
  store i32 %2, ptr %atomic-temp.i, align 4
  br label %_ZNKSt13__atomic_baseIiE4loadESt12memory_order.exit

acquire.i:                                        ; preds = %entry, %entry
  %3 = load atomic i32, ptr %this1.i acquire, align 4
  store i32 %3, ptr %atomic-temp.i, align 4
  br label %_ZNKSt13__atomic_baseIiE4loadESt12memory_order.exit

seqcst.i:                                         ; preds = %entry
  %4 = load atomic i32, ptr %this1.i seq_cst, align 4
  store i32 %4, ptr %atomic-temp.i, align 4
  br label %_ZNKSt13__atomic_baseIiE4loadESt12memory_order.exit

_ZNKSt13__atomic_baseIiE4loadESt12memory_order.exit: ; preds = %seqcst.i, %acquire.i, %monotonic.i
  %5 = load i32, ptr %atomic-temp.i, align 4
  ret i32 %5
}

; Function Attrs: mustprogress uwtable
define linkonce_odr noundef ptr @_ZNK7rocksdb8SkipListIPKcRKNS_11MemTableRep13KeyComparatorEE18FindGreaterOrEqualERKS2_(ptr noundef nonnull align 8 dereferenceable(52) %this, ptr noundef nonnull align 8 dereferenceable(8) %key) #0 comdat align 2 {
entry:
  %this.addr = alloca ptr, align 8
  %key.addr = alloca ptr, align 8
  %x = alloca ptr, align 8
  %level = alloca i32, align 4
  %last_bigger = alloca ptr, align 8
  %next = alloca ptr, align 8
  %cmp = alloca i32, align 4
  store ptr %this, ptr %this.addr, align 8
  store ptr %key, ptr %key.addr, align 8
  %this1 = load ptr, ptr %this.addr, align 8
  %head_ = getelementptr inbounds %"class.rocksdb::SkipList", ptr %this1, i32 0, i32 5
  %0 = load ptr, ptr %head_, align 8
  store ptr %0, ptr %x, align 8
  %call = call noundef i32 @_ZNK7rocksdb8SkipListIPKcRKNS_11MemTableRep13KeyComparatorEE12GetMaxHeightEv(ptr noundef nonnull align 8 dereferenceable(52) %this1)
  %sub = sub nsw i32 %call, 1
  store i32 %sub, ptr %level, align 4
  store ptr null, ptr %last_bigger, align 8
  br label %while.body

while.body:                                       ; preds = %if.end14, %entry
  %1 = load ptr, ptr %x, align 8
  %2 = load i32, ptr %level, align 4
  %call2 = call noundef ptr @_ZN7rocksdb8SkipListIPKcRKNS_11MemTableRep13KeyComparatorEE4Node4NextEi(ptr noundef nonnull align 8 dereferenceable(16) %1, i32 noundef %2)
  store ptr %call2, ptr %next, align 8
  %3 = load ptr, ptr %next, align 8
  %cmp3 = icmp eq ptr %3, null
  br i1 %cmp3, label %cond.true, label %lor.lhs.false

lor.lhs.false:                                    ; preds = %while.body
  %4 = load ptr, ptr %next, align 8
  %5 = load ptr, ptr %last_bigger, align 8
  %cmp4 = icmp eq ptr %4, %5
  br i1 %cmp4, label %cond.true, label %cond.false

cond.true:                                        ; preds = %lor.lhs.false, %while.body
  br label %cond.end

cond.false:                                       ; preds = %lor.lhs.false
  %compare_ = getelementptr inbounds %"class.rocksdb::SkipList", ptr %this1, i32 0, i32 3
  %6 = load ptr, ptr %compare_, align 8
  %7 = load ptr, ptr %next, align 8
  %key5 = getelementptr inbounds %"struct.rocksdb::SkipList<const char *, const rocksdb::MemTableRep::KeyComparator &>::Node", ptr %7, i32 0, i32 0
  %8 = load ptr, ptr %key5, align 8
  %9 = load ptr, ptr %key.addr, align 8
  %10 = load ptr, ptr %9, align 8
  %vtable = load ptr, ptr %6, align 8
  %vfn = getelementptr inbounds ptr, ptr %vtable, i64 1
  %11 = load ptr, ptr %vfn, align 8
  %call6 = call noundef i32 %11(ptr noundef nonnull align 8 dereferenceable(8) %6, ptr noundef %8, ptr noundef %10)
  br label %cond.end

cond.end:                                         ; preds = %cond.false, %cond.true
  %cond = phi i32 [ 1, %cond.true ], [ %call6, %cond.false ]
  store i32 %cond, ptr %cmp, align 4
  %12 = load i32, ptr %cmp, align 4
  %cmp7 = icmp eq i32 %12, 0
  br i1 %cmp7, label %if.then, label %lor.lhs.false8

lor.lhs.false8:                                   ; preds = %cond.end
  %13 = load i32, ptr %cmp, align 4
  %cmp9 = icmp sgt i32 %13, 0
  br i1 %cmp9, label %land.lhs.true, label %if.else

land.lhs.true:                                    ; preds = %lor.lhs.false8
  %14 = load i32, ptr %level, align 4
  %cmp10 = icmp eq i32 %14, 0
  br i1 %cmp10, label %if.then, label %if.else

if.then:                                          ; preds = %land.lhs.true, %cond.end
  %15 = load ptr, ptr %next, align 8
  ret ptr %15

if.else:                                          ; preds = %land.lhs.true, %lor.lhs.false8
  %16 = load i32, ptr %cmp, align 4
  %cmp11 = icmp slt i32 %16, 0
  br i1 %cmp11, label %if.then12, label %if.else13

if.then12:                                        ; preds = %if.else
  %17 = load ptr, ptr %next, align 8
  store ptr %17, ptr %x, align 8
  br label %if.end

if.else13:                                        ; preds = %if.else
  %18 = load ptr, ptr %next, align 8
  store ptr %18, ptr %last_bigger, align 8
  %19 = load i32, ptr %level, align 4
  %dec = add nsw i32 %19, -1
  store i32 %dec, ptr %level, align 4
  br label %if.end

if.end:                                           ; preds = %if.else13, %if.then12
  br label %if.end14

if.end14:                                         ; preds = %if.end
  br label %while.body, !llvm.loop !17
}

; Function Attrs: mustprogress uwtable
define linkonce_odr void @_ZN7rocksdb8SkipListIPKcRKNS_11MemTableRep13KeyComparatorEE8Iterator4SeekERKS2_(ptr noundef nonnull align 8 dereferenceable(16) %this, ptr noundef nonnull align 8 dereferenceable(8) %target) #0 comdat align 2 {
entry:
  %this.addr = alloca ptr, align 8
  %target.addr = alloca ptr, align 8
  store ptr %this, ptr %this.addr, align 8
  store ptr %target, ptr %target.addr, align 8
  %this1 = load ptr, ptr %this.addr, align 8
  %list_ = getelementptr inbounds %"class.rocksdb::SkipList<const char *, const rocksdb::MemTableRep::KeyComparator &>::Iterator", ptr %this1, i32 0, i32 0
  %0 = load ptr, ptr %list_, align 8
  %1 = load ptr, ptr %target.addr, align 8
  %call = call noundef ptr @_ZNK7rocksdb8SkipListIPKcRKNS_11MemTableRep13KeyComparatorEE18FindGreaterOrEqualERKS2_(ptr noundef nonnull align 8 dereferenceable(52) %0, ptr noundef nonnull align 8 dereferenceable(8) %1)
  %node_ = getelementptr inbounds %"class.rocksdb::SkipList<const char *, const rocksdb::MemTableRep::KeyComparator &>::Iterator", ptr %this1, i32 0, i32 1
  store ptr %call, ptr %node_, align 8
  ret void
}

; Function Attrs: mustprogress uwtable
define internal void @_ZN7rocksdb12_GLOBAL__N_115HashSkipListRep8Iterator4SeekERKNS_5SliceEPKc(ptr noundef nonnull align 8 dereferenceable(80) %this, ptr noundef nonnull align 8 dereferenceable(16) %internal_key, ptr noundef %memtable_key) unnamed_addr #0 align 2 {
entry:
  %this.addr = alloca ptr, align 8
  %internal_key.addr = alloca ptr, align 8
  %memtable_key.addr = alloca ptr, align 8
  %encoded_key = alloca ptr, align 8
  store ptr %this, ptr %this.addr, align 8
  store ptr %internal_key, ptr %internal_key.addr, align 8
  store ptr %memtable_key, ptr %memtable_key.addr, align 8
  %this1 = load ptr, ptr %this.addr, align 8
  %list_ = getelementptr inbounds %"class.rocksdb::(anonymous namespace)::HashSkipListRep::Iterator", ptr %this1, i32 0, i32 1
  %0 = load ptr, ptr %list_, align 8
  %cmp = icmp ne ptr %0, null
  br i1 %cmp, label %if.then, label %if.end

if.then:                                          ; preds = %entry
  %1 = load ptr, ptr %memtable_key.addr, align 8
  %cmp2 = icmp ne ptr %1, null
  br i1 %cmp2, label %cond.true, label %cond.false

cond.true:                                        ; preds = %if.then
  %2 = load ptr, ptr %memtable_key.addr, align 8
  br label %cond.end

cond.false:                                       ; preds = %if.then
  %tmp_ = getelementptr inbounds %"class.rocksdb::(anonymous namespace)::HashSkipListRep::Iterator", ptr %this1, i32 0, i32 5
  %3 = load ptr, ptr %internal_key.addr, align 8
  %call = call noundef ptr @_ZN7rocksdb9EncodeKeyEPNSt7__cxx1112basic_stringIcSt11char_traitsIcESaIcEEERKNS_5SliceE(ptr noundef %tmp_, ptr noundef nonnull align 8 dereferenceable(16) %3)
  br label %cond.end

cond.end:                                         ; preds = %cond.false, %cond.true
  %cond = phi ptr [ %2, %cond.true ], [ %call, %cond.false ]
  store ptr %cond, ptr %encoded_key, align 8
  %iter_ = getelementptr inbounds %"class.rocksdb::(anonymous namespace)::HashSkipListRep::Iterator", ptr %this1, i32 0, i32 2
  call void @_ZN7rocksdb8SkipListIPKcRKNS_11MemTableRep13KeyComparatorEE8Iterator4SeekERKS2_(ptr noundef nonnull align 8 dereferenceable(16) %iter_, ptr noundef nonnull align 8 dereferenceable(8) %encoded_key)
  br label %if.end

if.end:                                           ; preds = %cond.end, %entry
  ret void
}