; Function Attrs: mustprogress uwtable
define internal void @_ZN7rocksdb12_GLOBAL__N_115HashSkipListRep8Iterator4SeekERKNS_5SliceEPKc(ptr noundef nonnull align 8 dereferenceable(80) %this, ptr noundef nonnull align 8 dereferenceable(16) %internal_key, ptr noundef %memtable_key) unnamed_addr #3 align 2 {
entry:
  %list_ = getelementptr inbounds i8, ptr %this, i64 8
  %0 = load ptr, ptr %list_, align 8
  %cmp.not = icmp eq ptr %0, null
  br i1 %cmp.not, label %if.end, label %if.then

if.then:                                          ; preds = %entry
  %cmp2.not = icmp eq ptr %memtable_key, null
  br i1 %cmp2.not, label %cond.false, label %cond.end

cond.false:                                       ; preds = %if.then
  %tmp_ = getelementptr inbounds i8, ptr %this, i64 48
  %call = tail call noundef ptr @_ZN7rocksdb9EncodeKeyEPNSt7__cxx1112basic_stringIcSt11char_traitsIcESaIcEEERKNS_5SliceE(ptr noundef nonnull %tmp_, ptr noundef nonnull align 8 dereferenceable(16) %internal_key)
  br label %cond.end

cond.end:                                         ; preds = %if.then, %cond.false
  %cond = phi ptr [ %call, %cond.false ], [ %memtable_key, %if.then ]
  %iter_ = getelementptr inbounds i8, ptr %this, i64 16
  %1 = load ptr, ptr %iter_, align 8
  %head_.i.i = getelementptr inbounds i8, ptr %1, i64 24
  %2 = load ptr, ptr %head_.i.i, align 8
  %max_height_.i.i.i = getelementptr inbounds i8, ptr %1, i64 32
  %3 = load atomic i32, ptr %max_height_.i.i.i monotonic, align 4
  %sub.i.i = add nsw i32 %3, -1
  %compare_.i.i = getelementptr inbounds i8, ptr %1, i64 8
  br label %while.body.i.i

while.body.i.i:                                   ; preds = %if.else.i.i, %cond.end
  %last_bigger.0.i.i = phi ptr [ null, %cond.end ], [ %last_bigger.1.i.i, %if.else.i.i ]
  %level.0.i.i = phi i32 [ %sub.i.i, %cond.end ], [ %level.1.i.i, %if.else.i.i ]
  %x.0.i.i = phi ptr [ %2, %cond.end ], [ %x.1.i.i, %if.else.i.i ]
  %next_.i.i.i = getelementptr inbounds i8, ptr %x.0.i.i, i64 8
  %idxprom.i.i.i = sext i32 %level.0.i.i to i64
  %arrayidx.i.i.i = getelementptr inbounds [1 x %"struct.std::atomic.31"], ptr %next_.i.i.i, i64 0, i64 %idxprom.i.i.i
  %4 = load atomic i64, ptr %arrayidx.i.i.i acquire, align 8
  %atomic-temp.i.0.i.i.i.i = inttoptr i64 %4 to ptr
  %cmp3.i.i = icmp eq i64 %4, 0
  %cmp4.i.i = icmp eq ptr %last_bigger.0.i.i, %atomic-temp.i.0.i.i.i.i
  %or.cond10.i.i = select i1 %cmp3.i.i, i1 true, i1 %cmp4.i.i
  br i1 %or.cond10.i.i, label %lor.lhs.false8.i.i, label %cond.end.i.i

cond.end.i.i:                                     ; preds = %while.body.i.i
  %5 = load ptr, ptr %compare_.i.i, align 8
  %6 = load ptr, ptr %atomic-temp.i.0.i.i.i.i, align 8
  %vtable.i.i = load ptr, ptr %5, align 8
  %vfn.i.i = getelementptr inbounds i8, ptr %vtable.i.i, i64 8
  %7 = load ptr, ptr %vfn.i.i, align 8
  %call6.i.i = tail call noundef i32 %7(ptr noundef nonnull align 8 dereferenceable(8) %5, ptr noundef %6, ptr noundef %cond)
  %cmp7.i.i = icmp eq i32 %call6.i.i, 0
  br i1 %cmp7.i.i, label %_ZN7rocksdb8SkipListIPKcRKNS_11MemTableRep13KeyComparatorEE8Iterator4SeekERKS2_.exit, label %lor.lhs.false8.i.i

lor.lhs.false8.i.i:                               ; preds = %cond.end.i.i, %while.body.i.i
  %cond13.i.i = phi i32 [ %call6.i.i, %cond.end.i.i ], [ 1, %while.body.i.i ]
  %cmp9.i.i = icmp sgt i32 %cond13.i.i, 0
  %cmp10.i.i = icmp eq i32 %level.0.i.i, 0
  %or.cond.i.i = and i1 %cmp10.i.i, %cmp9.i.i
  br i1 %or.cond.i.i, label %_ZN7rocksdb8SkipListIPKcRKNS_11MemTableRep13KeyComparatorEE8Iterator4SeekERKS2_.exit, label %if.else.i.i

if.else.i.i:                                      ; preds = %lor.lhs.false8.i.i
  %cmp11.i.i = icmp sgt i32 %cond13.i.i, -1
  %last_bigger.1.i.i = select i1 %cmp11.i.i, ptr %atomic-temp.i.0.i.i.i.i, ptr %last_bigger.0.i.i
  %dec.i.i = sext i1 %cmp11.i.i to i32
  %level.1.i.i = add nsw i32 %level.0.i.i, %dec.i.i
  %x.1.i.i = select i1 %cmp11.i.i, ptr %x.0.i.i, ptr %atomic-temp.i.0.i.i.i.i
  br label %while.body.i.i, !llvm.loop !9

_ZN7rocksdb8SkipListIPKcRKNS_11MemTableRep13KeyComparatorEE8Iterator4SeekERKS2_.exit: ; preds = %cond.end.i.i, %lor.lhs.false8.i.i
  %node_.i = getelementptr inbounds i8, ptr %this, i64 24
  store ptr %atomic-temp.i.0.i.i.i.i, ptr %node_.i, align 8
  br label %if.end

if.end:                                           ; preds = %_ZN7rocksdb8SkipListIPKcRKNS_11MemTableRep13KeyComparatorEE8Iterator4SeekERKS2_.exit, %entry
  ret void
}